target datalayout = "e-m:e-p270:32:32-p271:32:32-p272:64:64-i64:64-i128:128-f80:128-n8:16:32:64-S128"
target triple = "x86_64-pc-linux-gnu"

%struct.ColorContext = type { ptr }
%struct.SwsFilterDescriptor = type { ptr, ptr, i32, ptr, ptr }

; Function Attrs: nounwind uwtable
define i32 @ff_init_desc_cfmt_convert(ptr noundef %0, ptr noundef %1, ptr noundef %2, ptr noundef %3) #0 {
  %5 = alloca i32, align 4
  %6 = alloca ptr, align 8
  %7 = alloca ptr, align 8
  %8 = alloca ptr, align 8
  %9 = alloca ptr, align 8
  %10 = alloca ptr, align 8
  %11 = alloca i32, align 4
  store ptr %0, ptr %6, align 8, !tbaa !4
  store ptr %1, ptr %7, align 8, !tbaa !9
  store ptr %2, ptr %8, align 8, !tbaa !9
  store ptr %3, ptr %9, align 8, !tbaa !11
  call void @llvm.lifetime.start.p0(i64 8, ptr %10) #6
  %12 = call noalias ptr @av_malloc(i64 noundef 8)
  store ptr %12, ptr %10, align 8, !tbaa !13
  %13 = load ptr, ptr %10, align 8, !tbaa !13
  %14 = icmp ne ptr %13, null
  br i1 %14, label %16, label %15

15:                                               ; preds = %4
  store i32 -12, ptr %5, align 4
  store i32 1, ptr %11, align 4
  br label %31

16:                                               ; preds = %4
  %17 = load ptr, ptr %9, align 8, !tbaa !11
  %18 = load ptr, ptr %10, align 8, !tbaa !13
  %19 = getelementptr inbounds nuw %struct.ColorContext, ptr %18, i32 0, i32 0
  store ptr %17, ptr %19, align 8, !tbaa !15
  %20 = load ptr, ptr %10, align 8, !tbaa !13
  %21 = load ptr, ptr %6, align 8, !tbaa !4
  %22 = getelementptr inbounds nuw %struct.SwsFilterDescriptor, ptr %21, i32 0, i32 3
  store ptr %20, ptr %22, align 8, !tbaa !17
  %23 = load ptr, ptr %7, align 8, !tbaa !9
  %24 = load ptr, ptr %6, align 8, !tbaa !4
  %25 = getelementptr inbounds nuw %struct.SwsFilterDescriptor, ptr %24, i32 0, i32 0
  store ptr %23, ptr %25, align 8, !tbaa !23
  %26 = load ptr, ptr %8, align 8, !tbaa !9
  %27 = load ptr, ptr %6, align 8, !tbaa !4
  %28 = getelementptr inbounds nuw %struct.SwsFilterDescriptor, ptr %27, i32 0, i32 1
  store ptr %26, ptr %28, align 8, !tbaa !24
  %29 = load ptr, ptr %6, align 8, !tbaa !4
  %30 = getelementptr inbounds nuw %struct.SwsFilterDescriptor, ptr %29, i32 0, i32 4
  store ptr @chr_convert, ptr %30, align 8, !tbaa !25
  store i32 0, ptr %5, align 4
  store i32 1, ptr %11, align 4
  br label %31

31:                                               ; preds = %16, %15
  call void @llvm.lifetime.end.p0(i64 8, ptr %10) #6
  %32 = load i32, ptr %5, align 4
  ret i32 %32
}