; Function Attrs: nounwind uwtable
define range(i32 -12, 1) i32 @ff_init_desc_cfmt_convert(ptr noundef writeonly captures(none) %0, ptr noundef %1, ptr noundef %2, ptr noundef %3) local_unnamed_addr #0 {
  %5 = tail call noalias ptr @av_malloc(i64 noundef 8) #6
  %.not = icmp eq ptr %5, null
  br i1 %.not, label %10, label %6

6:                                                ; preds = %4
  store ptr %3, ptr %5, align 8, !tbaa !4
  %7 = getelementptr inbounds nuw i8, ptr %0, i64 24
  store ptr %5, ptr %7, align 8, !tbaa !10
  store ptr %1, ptr %0, align 8, !tbaa !21
  %8 = getelementptr inbounds nuw i8, ptr %0, i64 8
  store ptr %2, ptr %8, align 8, !tbaa !22
  %9 = getelementptr inbounds nuw i8, ptr %0, i64 32
  store ptr @chr_convert, ptr %9, align 8, !tbaa !23
  br label %10

10:                                               ; preds = %4, %6
  %.0 = phi i32 [ 0, %6 ], [ -12, %4 ]
  ret i32 %.0
}